target datalayout = "e-m:e-p270:32:32-p271:32:32-p272:64:64-i64:64-i128:128-f80:128-n8:16:32:64-S128"
target triple = "x86_64-pc-linux-gnu"

; Function Attrs: nounwind uwtable
define internal void @inflate(ptr noundef %0, ptr noundef %1, i32 noundef %2, i32 noundef %3, ptr noundef %4, i32 noundef %5, i32 noundef %6) #1 {
  %8 = alloca ptr, align 8
  %9 = alloca ptr, align 8
  %10 = alloca i32, align 4
  %11 = alloca i32, align 4
  %12 = alloca ptr, align 8
  %13 = alloca i32, align 4
  %14 = alloca i32, align 4
  %15 = alloca i32, align 4
  %16 = alloca i32, align 4
  %17 = alloca i32, align 4
  %18 = alloca i32, align 4
  store ptr %0, ptr %8, align 8, !tbaa !64
  store ptr %1, ptr %9, align 8, !tbaa !64
  store i32 %2, ptr %10, align 4, !tbaa !42
  store i32 %3, ptr %11, align 4, !tbaa !42
  store ptr %4, ptr %12, align 8, !tbaa !69
  store i32 %5, ptr %13, align 4, !tbaa !42
  store i32 %6, ptr %14, align 4, !tbaa !42
  call void @llvm.lifetime.start.p0(i64 4, ptr %15) #5
  call void @llvm.lifetime.start.p0(i64 4, ptr %16) #5
  store i32 0, ptr %15, align 4, !tbaa !42
  br label %19

19:                                               ; preds = %118, %7
  %20 = load i32, ptr %15, align 4, !tbaa !42
  %21 = load i32, ptr %10, align 4, !tbaa !42
  %22 = icmp slt i32 %20, %21
  br i1 %22, label %23, label %121

23:                                               ; preds = %19
  call void @llvm.lifetime.start.p0(i64 4, ptr %17) #5
  store i32 0, ptr %17, align 4, !tbaa !42
  call void @llvm.lifetime.start.p0(i64 4, ptr %18) #5
  %24 = load ptr, ptr %9, align 8, !tbaa !64
  %25 = load i32, ptr %15, align 4, !tbaa !42
  %26 = sext i32 %25 to i64
  %27 = getelementptr inbounds i8, ptr %24, i64 %26
  %28 = load i8, ptr %27, align 1, !tbaa !73
  %29 = zext i8 %28 to i32
  %30 = load i32, ptr %11, align 4, !tbaa !42
  %31 = add nsw i32 %29, %30
  %32 = icmp sgt i32 %31, 255
  br i1 %32, label %33, label %34

33:                                               ; preds = %23
  br label %43

34:                                               ; preds = %23
  %35 = load ptr, ptr %9, align 8, !tbaa !64
  %36 = load i32, ptr %15, align 4, !tbaa !42
  %37 = sext i32 %36 to i64
  %38 = getelementptr inbounds i8, ptr %35, i64 %37
  %39 = load i8, ptr %38, align 1, !tbaa !73
  %40 = zext i8 %39 to i32
  %41 = load i32, ptr %11, align 4, !tbaa !42
  %42 = add nsw i32 %40, %41
  br label %43

43:                                               ; preds = %34, %33
  %44 = phi i32 [ 255, %33 ], [ %42, %34 ]
  store i32 %44, ptr %18, align 4, !tbaa !42
  store i32 0, ptr %16, align 4, !tbaa !42
  br label %45

45:                                               ; preds = %49, %43
  %46 = load i32, ptr %16, align 4, !tbaa !42
  %47 = icmp slt i32 %46, 8
  br i1 %47, label %48, label %63

48:                                               ; preds = %45
  br label %49

49:                                               ; preds = %48
  %50 = load ptr, ptr %12, align 8, !tbaa !69
  %51 = load i32, ptr %16, align 4, !tbaa !42
  %52 = add nsw i32 %51, 1
  store i32 %52, ptr %16, align 4, !tbaa !42
  %53 = sext i32 %51 to i64
  %54 = getelementptr inbounds ptr, ptr %50, i64 %53
  %55 = load ptr, ptr %54, align 8, !tbaa !64
  %56 = load i32, ptr %15, align 4, !tbaa !42
  %57 = sext i32 %56 to i64
  %58 = getelementptr inbounds i8, ptr %55, i64 %57
  %59 = load i8, ptr %58, align 1, !tbaa !73
  %60 = zext i8 %59 to i32
  %61 = load i32, ptr %17, align 4, !tbaa !42
  %62 = add nsw i32 %61, %60
  store i32 %62, ptr %17, align 4, !tbaa !42
  br label %45, !llvm.loop !90

63:                                               ; preds = %45
  %64 = load i32, ptr %17, align 4, !tbaa !42
  %65 = sdiv i32 %64, 8
  %66 = load ptr, ptr %9, align 8, !tbaa !64
  %67 = load i32, ptr %15, align 4, !tbaa !42
  %68 = sext i32 %67 to i64
  %69 = getelementptr inbounds i8, ptr %66, i64 %68
  %70 = load i8, ptr %69, align 1, !tbaa !73
  %71 = zext i8 %70 to i32
  %72 = icmp sgt i32 %65, %71
  br i1 %72, label %73, label %76

73:                                               ; preds = %63
  %74 = load i32, ptr %17, align 4, !tbaa !42
  %75 = sdiv i32 %74, 8
  br label %83

76:                                               ; preds = %63
  %77 = load ptr, ptr %9, align 8, !tbaa !64
  %78 = load i32, ptr %15, align 4, !tbaa !42
  %79 = sext i32 %78 to i64
  %80 = getelementptr inbounds i8, ptr %77, i64 %79
  %81 = load i8, ptr %80, align 1, !tbaa !73
  %82 = zext i8 %81 to i32
  br label %83

83:                                               ; preds = %76, %73
  %84 = phi i32 [ %75, %73 ], [ %82, %76 ]
  %85 = load i32, ptr %18, align 4, !tbaa !42
  %86 = icmp sgt i32 %84, %85
  br i1 %86, label %87, label %89

87:                                               ; preds = %83
  %88 = load i32, ptr %18, align 4, !tbaa !42
  br label %111

89:                                               ; preds = %83
  %90 = load i32, ptr %17, align 4, !tbaa !42
  %91 = sdiv i32 %90, 8
  %92 = load ptr, ptr %9, align 8, !tbaa !64
  %93 = load i32, ptr %15, align 4, !tbaa !42
  %94 = sext i32 %93 to i64
  %95 = getelementptr inbounds i8, ptr %92, i64 %94
  %96 = load i8, ptr %95, align 1, !tbaa !73
  %97 = zext i8 %96 to i32
  %98 = icmp sgt i32 %91, %97
  br i1 %98, label %99, label %102

99:                                               ; preds = %89
  %100 = load i32, ptr %17, align 4, !tbaa !42
  %101 = sdiv i32 %100, 8
  br label %109

102:                                              ; preds = %89
  %103 = load ptr, ptr %9, align 8, !tbaa !64
  %104 = load i32, ptr %15, align 4, !tbaa !42
  %105 = sext i32 %104 to i64
  %106 = getelementptr inbounds i8, ptr %103, i64 %105
  %107 = load i8, ptr %106, align 1, !tbaa !73
  %108 = zext i8 %107 to i32
  br label %109

109:                                              ; preds = %102, %99
  %110 = phi i32 [ %101, %99 ], [ %108, %102 ]
  br label %111

111:                                              ; preds = %109, %87
  %112 = phi i32 [ %88, %87 ], [ %110, %109 ]
  %113 = trunc i32 %112 to i8
  %114 = load ptr, ptr %8, align 8, !tbaa !64
  %115 = load i32, ptr %15, align 4, !tbaa !42
  %116 = sext i32 %115 to i64
  %117 = getelementptr inbounds i8, ptr %114, i64 %116
  store i8 %113, ptr %117, align 1, !tbaa !73
  call void @llvm.lifetime.end.p0(i64 4, ptr %18) #5
  call void @llvm.lifetime.end.p0(i64 4, ptr %17) #5
  br label %118

118:                                              ; preds = %111
  %119 = load i32, ptr %15, align 4, !tbaa !42
  %120 = add nsw i32 %119, 1
  store i32 %120, ptr %15, align 4, !tbaa !42
  br label %19, !llvm.loop !91

121:                                              ; preds = %19
  call void @llvm.lifetime.end.p0(i64 4, ptr %16) #5
  call void @llvm.lifetime.end.p0(i64 4, ptr %15) #5
  ret void
}