; Function Attrs: nofree norecurse nosync nounwind memory(read, argmem: readwrite, inaccessiblemem: none) uwtable
define internal void @inflate(ptr noundef writeonly captures(none) %0, ptr noundef readonly captures(none) %1, i32 noundef %2, i32 noundef %3, ptr noundef readonly captures(none) %4, i32 %5, i32 %6) #5 {
  %8 = icmp sgt i32 %2, 0
  br i1 %8, label %.lr.ph.preheader, label %._crit_edge

.lr.ph.preheader:                                 ; preds = %7
  %wide.trip.count = zext nneg i32 %2 to i64
  br label %.lr.ph

.lr.ph:                                           ; preds = %.lr.ph.preheader, %18
  %indvars.iv42 = phi i64 [ 0, %.lr.ph.preheader ], [ %indvars.iv.next43, %18 ]
  %9 = getelementptr inbounds nuw i8, ptr %1, i64 %indvars.iv42
  %10 = load i8, ptr %9, align 1, !tbaa !61
  br label %11

11:                                               ; preds = %.lr.ph, %11
  %indvars.iv = phi i64 [ 0, %.lr.ph ], [ %indvars.iv.next, %11 ]
  %.02939 = phi i32 [ 0, %.lr.ph ], [ %17, %11 ]
  %indvars.iv.next = add nuw nsw i64 %indvars.iv, 1
  %12 = getelementptr inbounds nuw ptr, ptr %4, i64 %indvars.iv
  %13 = load ptr, ptr %12, align 8, !tbaa !56
  %14 = getelementptr inbounds nuw i8, ptr %13, i64 %indvars.iv42
  %15 = load i8, ptr %14, align 1, !tbaa !61
  %16 = zext i8 %15 to i32
  %17 = add nuw nsw i32 %.02939, %16
  %exitcond.not = icmp eq i64 %indvars.iv.next, 8
  br i1 %exitcond.not, label %18, label %11, !llvm.loop !78

18:                                               ; preds = %11
  %19 = zext i8 %10 to i32
  %20 = add nsw i32 %3, %19
  %21 = lshr i32 %17, 3
  %. = tail call i32 @llvm.umax.i32(i32 %21, i32 %19)
  %spec.select = tail call i32 @llvm.smin.i32(i32 %20, i32 %.)
  %spec.select37 = tail call i32 @llvm.smin.i32(i32 %spec.select, i32 255)
  %22 = trunc i32 %spec.select37 to i8
  %23 = getelementptr inbounds nuw i8, ptr %0, i64 %indvars.iv42
  store i8 %22, ptr %23, align 1, !tbaa !61
  %indvars.iv.next43 = add nuw nsw i64 %indvars.iv42, 1
  %exitcond45.not = icmp eq i64 %indvars.iv.next43, %wide.trip.count
  br i1 %exitcond45.not, label %._crit_edge, label %.lr.ph, !llvm.loop !79

._crit_edge:                                      ; preds = %18, %7
  ret void
}